target datalayout = "e-m:e-p270:32:32-p271:32:32-p272:64:64-i64:64-i128:128-f80:128-n8:16:32:64-S128"
target triple = "x86_64-pc-linux-gnu"

; Function Attrs: nounwind uwtable
define internal ptr @Unroll3BytesSkip1Swap(ptr noundef %0, ptr noundef %1, ptr noundef %2, i32 noundef %3) #0 {
  %5 = alloca ptr, align 8
  %6 = alloca ptr, align 8
  %7 = alloca ptr, align 8
  %8 = alloca i32, align 4
  store ptr %0, ptr %5, align 8
  store ptr %1, ptr %6, align 8
  store ptr %2, ptr %7, align 8
  store i32 %3, ptr %8, align 4
  %9 = load ptr, ptr %7, align 8
  %10 = getelementptr inbounds i8, ptr %9, i32 1
  store ptr %10, ptr %7, align 8
  %11 = load ptr, ptr %7, align 8
  %12 = load i8, ptr %11, align 1
  %13 = zext i8 %12 to i16
  %14 = zext i16 %13 to i32
  %15 = shl i32 %14, 8
  %16 = load ptr, ptr %7, align 8
  %17 = load i8, ptr %16, align 1
  %18 = zext i8 %17 to i32
  %19 = or i32 %15, %18
  %20 = trunc i32 %19 to i16
  %21 = load ptr, ptr %6, align 8
  %22 = getelementptr inbounds i16, ptr %21, i64 2
  store i16 %20, ptr %22, align 2
  %23 = load ptr, ptr %7, align 8
  %24 = getelementptr inbounds i8, ptr %23, i32 1
  store ptr %24, ptr %7, align 8
  %25 = load ptr, ptr %7, align 8
  %26 = load i8, ptr %25, align 1
  %27 = zext i8 %26 to i16
  %28 = zext i16 %27 to i32
  %29 = shl i32 %28, 8
  %30 = load ptr, ptr %7, align 8
  %31 = load i8, ptr %30, align 1
  %32 = zext i8 %31 to i32
  %33 = or i32 %29, %32
  %34 = trunc i32 %33 to i16
  %35 = load ptr, ptr %6, align 8
  %36 = getelementptr inbounds i16, ptr %35, i64 1
  store i16 %34, ptr %36, align 2
  %37 = load ptr, ptr %7, align 8
  %38 = getelementptr inbounds i8, ptr %37, i32 1
  store ptr %38, ptr %7, align 8
  %39 = load ptr, ptr %7, align 8
  %40 = load i8, ptr %39, align 1
  %41 = zext i8 %40 to i16
  %42 = zext i16 %41 to i32
  %43 = shl i32 %42, 8
  %44 = load ptr, ptr %7, align 8
  %45 = load i8, ptr %44, align 1
  %46 = zext i8 %45 to i32
  %47 = or i32 %43, %46
  %48 = trunc i32 %47 to i16
  %49 = load ptr, ptr %6, align 8
  %50 = getelementptr inbounds i16, ptr %49, i64 0
  store i16 %48, ptr %50, align 2
  %51 = load ptr, ptr %7, align 8
  %52 = getelementptr inbounds i8, ptr %51, i32 1
  store ptr %52, ptr %7, align 8
  %53 = load ptr, ptr %7, align 8
  ret ptr %53
}