; Function Attrs: mustprogress nofree norecurse nosync nounwind willreturn memory(argmem: readwrite) uwtable
define internal nonnull ptr @Unroll3BytesSkip1Swap(ptr nocapture readnone %0, ptr nocapture noundef writeonly %1, ptr noundef readonly %2, i32 %3) #3 {
  %5 = getelementptr inbounds i8, ptr %2, i64 1
  %6 = load i8, ptr %5, align 1
  %7 = zext i8 %6 to i16
  %8 = shl nuw i16 %7, 8
  %9 = or disjoint i16 %8, %7
  %10 = getelementptr inbounds i8, ptr %1, i64 4
  store i16 %9, ptr %10, align 2
  %11 = getelementptr inbounds i8, ptr %2, i64 2
  %12 = load i8, ptr %11, align 1
  %13 = zext i8 %12 to i16
  %14 = shl nuw i16 %13, 8
  %15 = or disjoint i16 %14, %13
  %16 = getelementptr inbounds i8, ptr %1, i64 2
  store i16 %15, ptr %16, align 2
  %17 = getelementptr inbounds i8, ptr %2, i64 3
  %18 = load i8, ptr %17, align 1
  %19 = zext i8 %18 to i16
  %20 = shl nuw i16 %19, 8
  %21 = or disjoint i16 %20, %19
  store i16 %21, ptr %1, align 2
  %22 = getelementptr inbounds i8, ptr %2, i64 4
  ret ptr %22
}